target datalayout = "e-m:e-p270:32:32-p271:32:32-p272:64:64-i64:64-i128:128-f80:128-n8:16:32:64-S128"
target triple = "x86_64-pc-linux-gnu"

%struct.Min_Cube_t_ = type { ptr, i32, [1 x i32] }
%struct.Min_Man_t_ = type { i32, i32, ptr, ptr, ptr, [2 x ptr], [2 x ptr], ptr, ptr, i32, ptr }

; Function Attrs: inlinehint nounwind uwtable
define internal i32 @Min_CubeGetVar(ptr noundef %0, i32 noundef %1) #2 {
  %3 = alloca ptr, align 8
  %4 = alloca i32, align 4
  store ptr %0, ptr %3, align 8, !tbaa !8
  store i32 %1, ptr %4, align 4, !tbaa !11
  %5 = load ptr, ptr %3, align 8, !tbaa !8
  %6 = getelementptr inbounds nuw %struct.Min_Cube_t_, ptr %5, i32 0, i32 2
  %7 = load i32, ptr %4, align 4, !tbaa !11
  %8 = mul nsw i32 2, %7
  %9 = ashr i32 %8, 5
  %10 = sext i32 %9 to i64
  %11 = getelementptr inbounds [1 x i32], ptr %6, i64 0, i64 %10
  %12 = load i32, ptr %11, align 4, !tbaa !11
  %13 = load i32, ptr %4, align 4, !tbaa !11
  %14 = mul nsw i32 2, %13
  %15 = and i32 %14, 31
  %16 = lshr i32 %12, %15
  %17 = and i32 3, %16
  ret i32 %17
}

; Function Attrs: nounwind uwtable
define i32 @Min_CoverSuppVarNum(ptr noundef %0, ptr noundef %1) #0 {
  %3 = alloca i32, align 4
  %4 = alloca ptr, align 8
  %5 = alloca ptr, align 8
  %6 = alloca ptr, align 8
  %7 = alloca i32, align 4
  %8 = alloca i32, align 4
  %9 = alloca i32, align 4
  store ptr %0, ptr %4, align 8, !tbaa !27
  store ptr %1, ptr %5, align 8, !tbaa !8
  call void @llvm.lifetime.start.p0(i64 8, ptr %6) #8
  call void @llvm.lifetime.start.p0(i64 4, ptr %7) #8
  call void @llvm.lifetime.start.p0(i64 4, ptr %8) #8
  %10 = load ptr, ptr %5, align 8, !tbaa !8
  %11 = icmp eq ptr %10, null
  br i1 %11, label %12, label %13

12:                                               ; preds = %2
  store i32 0, ptr %3, align 4
  store i32 1, ptr %9, align 4
  br label %94

13:                                               ; preds = %2
  store i32 0, ptr %7, align 4, !tbaa !11
  br label %14

14:                                               ; preds = %30, %13
  %15 = load i32, ptr %7, align 4, !tbaa !11
  %16 = load ptr, ptr %5, align 8, !tbaa !8
  %17 = getelementptr inbounds nuw %struct.Min_Cube_t_, ptr %16, i32 0, i32 1
  %18 = load i32, ptr %17, align 8
  %19 = lshr i32 %18, 10
  %20 = and i32 %19, 4095
  %21 = icmp slt i32 %15, %20
  br i1 %21, label %22, label %33

22:                                               ; preds = %14
  %23 = load ptr, ptr %4, align 8, !tbaa !27
  %24 = getelementptr inbounds nuw %struct.Min_Man_t_, ptr %23, i32 0, i32 7
  %25 = load ptr, ptr %24, align 8, !tbaa !49
  %26 = getelementptr inbounds nuw %struct.Min_Cube_t_, ptr %25, i32 0, i32 2
  %27 = load i32, ptr %7, align 4, !tbaa !11
  %28 = sext i32 %27 to i64
  %29 = getelementptr inbounds [1 x i32], ptr %26, i64 0, i64 %28
  store i32 -1, ptr %29, align 4, !tbaa !11
  br label %30

30:                                               ; preds = %22
  %31 = load i32, ptr %7, align 4, !tbaa !11
  %32 = add nsw i32 %31, 1
  store i32 %32, ptr %7, align 4, !tbaa !11
  br label %14, !llvm.loop !50

33:                                               ; preds = %14
  %34 = load ptr, ptr %5, align 8, !tbaa !8
  store ptr %34, ptr %6, align 8, !tbaa !8
  br label %35

35:                                               ; preds = %67, %33
  %36 = load ptr, ptr %6, align 8, !tbaa !8
  %37 = icmp ne ptr %36, null
  br i1 %37, label %38, label %71

38:                                               ; preds = %35
  store i32 0, ptr %7, align 4, !tbaa !11
  br label %39

39:                                               ; preds = %63, %38
  %40 = load i32, ptr %7, align 4, !tbaa !11
  %41 = load ptr, ptr %5, align 8, !tbaa !8
  %42 = getelementptr inbounds nuw %struct.Min_Cube_t_, ptr %41, i32 0, i32 1
  %43 = load i32, ptr %42, align 8
  %44 = lshr i32 %43, 10
  %45 = and i32 %44, 4095
  %46 = icmp slt i32 %40, %45
  br i1 %46, label %47, label %66

47:                                               ; preds = %39
  %48 = load ptr, ptr %6, align 8, !tbaa !8
  %49 = getelementptr inbounds nuw %struct.Min_Cube_t_, ptr %48, i32 0, i32 2
  %50 = load i32, ptr %7, align 4, !tbaa !11
  %51 = sext i32 %50 to i64
  %52 = getelementptr inbounds [1 x i32], ptr %49, i64 0, i64 %51
  %53 = load i32, ptr %52, align 4, !tbaa !11
  %54 = load ptr, ptr %4, align 8, !tbaa !27
  %55 = getelementptr inbounds nuw %struct.Min_Man_t_, ptr %54, i32 0, i32 7
  %56 = load ptr, ptr %55, align 8, !tbaa !49
  %57 = getelementptr inbounds nuw %struct.Min_Cube_t_, ptr %56, i32 0, i32 2
  %58 = load i32, ptr %7, align 4, !tbaa !11
  %59 = sext i32 %58 to i64
  %60 = getelementptr inbounds [1 x i32], ptr %57, i64 0, i64 %59
  %61 = load i32, ptr %60, align 4, !tbaa !11
  %62 = and i32 %61, %53
  store i32 %62, ptr %60, align 4, !tbaa !11
  br label %63

63:                                               ; preds = %47
  %64 = load i32, ptr %7, align 4, !tbaa !11
  %65 = add nsw i32 %64, 1
  store i32 %65, ptr %7, align 4, !tbaa !11
  br label %39, !llvm.loop !51

66:                                               ; preds = %39
  br label %67

67:                                               ; preds = %66
  %68 = load ptr, ptr %6, align 8, !tbaa !8
  %69 = getelementptr inbounds nuw %struct.Min_Cube_t_, ptr %68, i32 0, i32 0
  %70 = load ptr, ptr %69, align 8, !tbaa !20
  store ptr %70, ptr %6, align 8, !tbaa !8
  br label %35, !llvm.loop !52

71:                                               ; preds = %35
  store i32 0, ptr %8, align 4, !tbaa !11
  store i32 0, ptr %7, align 4, !tbaa !11
  br label %72

72:                                               ; preds = %89, %71
  %73 = load i32, ptr %7, align 4, !tbaa !11
  %74 = load ptr, ptr %5, align 8, !tbaa !8
  %75 = getelementptr inbounds nuw %struct.Min_Cube_t_, ptr %74, i32 0, i32 1
  %76 = load i32, ptr %75, align 8
  %77 = and i32 %76, 1023
  %78 = icmp slt i32 %73, %77
  br i1 %78, label %79, label %92

79:                                               ; preds = %72
  %80 = load ptr, ptr %4, align 8, !tbaa !27
  %81 = getelementptr inbounds nuw %struct.Min_Man_t_, ptr %80, i32 0, i32 7
  %82 = load ptr, ptr %81, align 8, !tbaa !49
  %83 = load i32, ptr %7, align 4, !tbaa !11
  %84 = call i32 @Min_CubeGetVar(ptr noundef %82, i32 noundef %83)
  %85 = icmp ne i32 %84, 3
  %86 = zext i1 %85 to i32
  %87 = load i32, ptr %8, align 4, !tbaa !11
  %88 = add nsw i32 %87, %86
  store i32 %88, ptr %8, align 4, !tbaa !11
  br label %89

89:                                               ; preds = %79
  %90 = load i32, ptr %7, align 4, !tbaa !11
  %91 = add nsw i32 %90, 1
  store i32 %91, ptr %7, align 4, !tbaa !11
  br label %72, !llvm.loop !53

92:                                               ; preds = %72
  %93 = load i32, ptr %8, align 4, !tbaa !11
  store i32 %93, ptr %3, align 4
  store i32 1, ptr %9, align 4
  br label %94

94:                                               ; preds = %92, %12
  call void @llvm.lifetime.end.p0(i64 4, ptr %8) #8
  call void @llvm.lifetime.end.p0(i64 4, ptr %7) #8
  call void @llvm.lifetime.end.p0(i64 8, ptr %6) #8
  %95 = load i32, ptr %3, align 4
  ret i32 %95
}