; Function Attrs: nofree norecurse nosync nounwind memory(readwrite, inaccessiblemem: none) uwtable
define i32 @Min_CoverSuppVarNum(ptr noundef readonly captures(none) %0, ptr noundef readonly %1) local_unnamed_addr #8 {
  %3 = icmp eq ptr %1, null
  br i1 %3, label %.loopexit, label %.preheader29

.preheader29:                                     ; preds = %2
  %4 = getelementptr inbounds nuw i8, ptr %1, i64 8
  %5 = load i32, ptr %4, align 8
  %6 = and i32 %5, 4193280
  %.not37 = icmp eq i32 %6, 0
  br i1 %.not37, label %.preheader28, label %.lr.ph

.lr.ph:                                           ; preds = %.preheader29
  %7 = getelementptr inbounds nuw i8, ptr %0, i64 64
  %8 = load ptr, ptr %7, align 8, !tbaa !39
  %9 = getelementptr inbounds nuw i8, ptr %8, i64 12
  br label %12

.preheader28:                                     ; preds = %12, %.preheader29
  %10 = phi i32 [ %5, %.preheader29 ], [ %14, %12 ]
  %11 = getelementptr inbounds nuw i8, ptr %0, i64 64
  br label %.preheader27

12:                                               ; preds = %.lr.ph, %12
  %indvars.iv = phi i64 [ 0, %.lr.ph ], [ %indvars.iv.next, %12 ]
  %13 = getelementptr inbounds nuw [1 x i32], ptr %9, i64 0, i64 %indvars.iv
  store i32 -1, ptr %13, align 4, !tbaa !3
  %indvars.iv.next = add nuw nsw i64 %indvars.iv, 1
  %14 = load i32, ptr %4, align 8
  %15 = lshr i32 %14, 10
  %16 = and i32 %15, 4095
  %17 = zext nneg i32 %16 to i64
  %18 = icmp samesign ult i64 %indvars.iv.next, %17
  br i1 %18, label %12, label %.preheader28, !llvm.loop !40

.preheader27:                                     ; preds = %.preheader28, %._crit_edge
  %19 = phi i32 [ %10, %.preheader28 ], [ %38, %._crit_edge ]
  %.02433 = phi ptr [ %1, %.preheader28 ], [ %39, %._crit_edge ]
  %20 = and i32 %19, 4193280
  %.not38 = icmp eq i32 %20, 0
  br i1 %.not38, label %._crit_edge, label %.lr.ph32

.lr.ph32:                                         ; preds = %.preheader27
  %21 = getelementptr inbounds nuw i8, ptr %.02433, i64 12
  %22 = load ptr, ptr %11, align 8, !tbaa !39
  %23 = getelementptr inbounds nuw i8, ptr %22, i64 12
  br label %27

.preheader:                                       ; preds = %._crit_edge
  %24 = and i32 %38, 1023
  %.not39 = icmp eq i32 %24, 0
  br i1 %.not39, label %.loopexit, label %.lr.ph36

.lr.ph36:                                         ; preds = %.preheader
  %25 = load ptr, ptr %11, align 8, !tbaa !39
  %26 = getelementptr inbounds nuw i8, ptr %25, i64 12
  br label %40

27:                                               ; preds = %.lr.ph32, %27
  %indvars.iv41 = phi i64 [ 0, %.lr.ph32 ], [ %indvars.iv.next42, %27 ]
  %28 = getelementptr inbounds nuw [1 x i32], ptr %21, i64 0, i64 %indvars.iv41
  %29 = load i32, ptr %28, align 4, !tbaa !3
  %30 = getelementptr inbounds nuw [1 x i32], ptr %23, i64 0, i64 %indvars.iv41
  %31 = load i32, ptr %30, align 4, !tbaa !3
  %32 = and i32 %31, %29
  store i32 %32, ptr %30, align 4, !tbaa !3
  %indvars.iv.next42 = add nuw nsw i64 %indvars.iv41, 1
  %33 = load i32, ptr %4, align 8
  %34 = lshr i32 %33, 10
  %35 = and i32 %34, 4095
  %36 = zext nneg i32 %35 to i64
  %37 = icmp samesign ult i64 %indvars.iv.next42, %36
  br i1 %37, label %27, label %._crit_edge, !llvm.loop !41

._crit_edge:                                      ; preds = %27, %.preheader27
  %38 = phi i32 [ %19, %.preheader27 ], [ %33, %27 ]
  %39 = load ptr, ptr %.02433, align 8, !tbaa !16
  %.not = icmp eq ptr %39, null
  br i1 %.not, label %.preheader, label %.preheader27, !llvm.loop !42

40:                                               ; preds = %.lr.ph36, %40
  %.035 = phi i32 [ 0, %.lr.ph36 ], [ %51, %40 ]
  %.234 = phi i32 [ 0, %.lr.ph36 ], [ %52, %40 ]
  %41 = shl nuw nsw i32 %.234, 1
  %42 = lshr i32 %.234, 4
  %43 = zext nneg i32 %42 to i64
  %44 = getelementptr inbounds nuw [1 x i32], ptr %26, i64 0, i64 %43
  %45 = load i32, ptr %44, align 4, !tbaa !3
  %46 = and i32 %41, 30
  %47 = lshr i32 %45, %46
  %48 = and i32 %47, 3
  %49 = icmp ne i32 %48, 3
  %50 = zext i1 %49 to i32
  %51 = add nuw nsw i32 %.035, %50
  %52 = add nuw nsw i32 %.234, 1
  %exitcond.not = icmp eq i32 %52, %24
  br i1 %exitcond.not, label %.loopexit, label %40, !llvm.loop !43

.loopexit:                                        ; preds = %40, %.preheader, %2
  %.025 = phi i32 [ 0, %2 ], [ 0, %.preheader ], [ %51, %40 ]
  ret i32 %.025
}